; Function Attrs: mustprogress uwtable
define void @_ZN13duckdb_yyjson19yyjson_mut_doc_freeEPNS_14yyjson_mut_docE(ptr noundef %0) local_unnamed_addr #10 {
  %.not = icmp eq ptr %0, null
  br i1 %.not, label %10, label %2

2:                                                ; preds = %1
  %3 = getelementptr inbounds nuw i8, ptr %0, i64 8
  %.sroa.3.0..sroa_idx = getelementptr inbounds nuw i8, ptr %0, i64 24
  %.sroa.3.0.copyload = load ptr, ptr %.sroa.3.0..sroa_idx, align 8, !tbaa !5
  %.sroa.6.0..sroa_idx = getelementptr inbounds nuw i8, ptr %0, i64 32
  %.sroa.6.0.copyload = load ptr, ptr %.sroa.6.0..sroa_idx, align 8, !tbaa !5
  tail call void @llvm.memset.p0.i64(ptr noundef nonnull align 8 dereferenceable(32) %3, i8 0, i64 32, i1 false)
  %4 = getelementptr inbounds nuw i8, ptr %0, i64 72
  %5 = load ptr, ptr %4, align 8, !tbaa !44
  %.not.i12 = icmp eq ptr %5, null
  br i1 %.not.i12, label %_ZN13duckdb_yyjsonL30unsafe_yyjson_str_pool_releaseEPNS_15yyjson_str_poolEPNS_10yyjson_alcE.exit, label %.lr.ph

.lr.ph:                                           ; preds = %2, %.lr.ph
  %.0.i13 = phi ptr [ %6, %.lr.ph ], [ %5, %2 ]
  %6 = load ptr, ptr %.0.i13, align 8, !tbaa !45
  tail call void %.sroa.3.0.copyload(ptr noundef %.sroa.6.0.copyload, ptr noundef nonnull %.0.i13)
  %.not.i = icmp eq ptr %6, null
  br i1 %.not.i, label %_ZN13duckdb_yyjsonL30unsafe_yyjson_str_pool_releaseEPNS_15yyjson_str_poolEPNS_10yyjson_alcE.exit, label %.lr.ph, !llvm.loop !65

_ZN13duckdb_yyjsonL30unsafe_yyjson_str_pool_releaseEPNS_15yyjson_str_poolEPNS_10yyjson_alcE.exit: ; preds = %.lr.ph, %2
  %7 = getelementptr inbounds nuw i8, ptr %0, i64 112
  %8 = load ptr, ptr %7, align 8, !tbaa !55
  %.not.i714 = icmp eq ptr %8, null
  br i1 %.not.i714, label %_ZN13duckdb_yyjsonL30unsafe_yyjson_val_pool_releaseEPNS_15yyjson_val_poolEPNS_10yyjson_alcE.exit, label %.lr.ph16

.lr.ph16:                                         ; preds = %_ZN13duckdb_yyjsonL30unsafe_yyjson_str_pool_releaseEPNS_15yyjson_str_poolEPNS_10yyjson_alcE.exit, %.lr.ph16
  %.0.i615 = phi ptr [ %9, %.lr.ph16 ], [ %8, %_ZN13duckdb_yyjsonL30unsafe_yyjson_str_pool_releaseEPNS_15yyjson_str_poolEPNS_10yyjson_alcE.exit ]
  %9 = load ptr, ptr %.0.i615, align 8, !tbaa !56
  tail call void %.sroa.3.0.copyload(ptr noundef %.sroa.6.0.copyload, ptr noundef nonnull %.0.i615)
  %.not.i7 = icmp eq ptr %9, null
  br i1 %.not.i7, label %_ZN13duckdb_yyjsonL30unsafe_yyjson_val_pool_releaseEPNS_15yyjson_val_poolEPNS_10yyjson_alcE.exit, label %.lr.ph16, !llvm.loop !66

_ZN13duckdb_yyjsonL30unsafe_yyjson_val_pool_releaseEPNS_15yyjson_val_poolEPNS_10yyjson_alcE.exit: ; preds = %.lr.ph16, %_ZN13duckdb_yyjsonL30unsafe_yyjson_str_pool_releaseEPNS_15yyjson_str_poolEPNS_10yyjson_alcE.exit
  tail call void %.sroa.3.0.copyload(ptr noundef %.sroa.6.0.copyload, ptr noundef nonnull %0)
  br label %10

10:                                               ; preds = %_ZN13duckdb_yyjsonL30unsafe_yyjson_val_pool_releaseEPNS_15yyjson_val_poolEPNS_10yyjson_alcE.exit, %1
  ret void
}